; Function Attrs: nounwind uwtable
define internal i32 @drawgrid_filter_frame(ptr noundef readonly captures(none) %0, ptr noundef %1) #1 {
  %3 = getelementptr inbounds nuw i8, ptr %0, i64 16
  %4 = load ptr, ptr %3, align 8, !tbaa !35
  %5 = getelementptr inbounds nuw i8, ptr %4, i64 72
  %6 = load ptr, ptr %5, align 8, !tbaa !4
  %7 = getelementptr inbounds nuw i8, ptr %6, i64 128
  %8 = load ptr, ptr %7, align 8, !tbaa !50
  %9 = getelementptr inbounds nuw i8, ptr %1, i64 104
  %10 = load i32, ptr %9, align 8, !tbaa !51
  %11 = getelementptr inbounds nuw i8, ptr %1, i64 108
  %12 = load i32, ptr %11, align 4, !tbaa !55
  tail call void %8(ptr noundef %1, ptr noundef %6, i32 noundef 0, i32 noundef 0, i32 noundef %10, i32 noundef %12, ptr noundef nonnull @pixel_belongs_to_grid) #10
  %13 = load ptr, ptr %3, align 8, !tbaa !35
  %14 = getelementptr inbounds nuw i8, ptr %13, i64 56
  %15 = load ptr, ptr %14, align 8, !tbaa !65
  %16 = load ptr, ptr %15, align 8, !tbaa !27
  %17 = tail call i32 @ff_filter_frame(ptr noundef %16, ptr noundef %1) #10
  ret i32 %17
}